; ModuleID = '56/1111.c'
source_filename = "56/1111.c"
target datalayout = "e-m:e-p270:32:32-p271:32:32-p272:64:64-i64:64-f80:128-n8:16:32:64-S128"
target triple = "x86_64-pc-linux-gnu"

@.str = private unnamed_addr constant [3 x i8] c"%d\00", align 1

; Function Attrs: noinline nounwind uwtable
define dso_local i32 @main() #0 {
  %1 = alloca i32, align 4
  %2 = alloca i32, align 4
  %3 = alloca i32, align 4
  %4 = alloca i32, align 4
  %5 = alloca i32, align 4
  %6 = alloca i32, align 4
  %7 = alloca i32, align 4
  %8 = alloca i32, align 4
  store i32 0, i32* %1, align 4
  %9 = call i32 (i8*, ...) @__isoc99_scanf(i8* getelementptr inbounds ([3 x i8], [3 x i8]* @.str, i64 0, i64 0), i32* %2)
  %10 = load i32, i32* %2, align 4
  %11 = srem i32 %10, 10
  store i32 %11, i32* %7, align 4
  %12 = load i32, i32* %2, align 4
  %13 = load i32, i32* %7, align 4
  %14 = sub nsw i32 %12, %13
  %15 = srem i32 %14, 100
  %16 = sdiv i32 %15, 10
  store i32 %16, i32* %6, align 4
  %17 = load i32, i32* %2, align 4
  %18 = load i32, i32* %7, align 4
  %19 = sub nsw i32 %17, %18
  %20 = load i32, i32* %6, align 4
  %21 = mul nsw i32 10, %20
  %22 = sub nsw i32 %19, %21
  %23 = srem i32 %22, 1000
  %24 = sdiv i32 %23, 100
  store i32 %24, i32* %5, align 4
  %25 = load i32, i32* %2, align 4
  %26 = load i32, i32* %7, align 4
  %27 = sub nsw i32 %25, %26
  %28 = load i32, i32* %6, align 4
  %29 = mul nsw i32 10, %28
  %30 = sub nsw i32 %27, %29
  %31 = load i32, i32* %5, align 4
  %32 = mul nsw i32 100, %31
  %33 = sub nsw i32 %30, %32
  %34 = srem i32 %33, 10000
  %35 = sdiv i32 %34, 1000
  store i32 %35, i32* %4, align 4
  %36 = load i32, i32* %2, align 4
  %37 = load i32, i32* %7, align 4
  %38 = sub nsw i32 %36, %37
  %39 = load i32, i32* %6, align 4
  %40 = mul nsw i32 10, %39
  %41 = sub nsw i32 %38, %40
  %42 = load i32, i32* %5, align 4
  %43 = mul nsw i32 100, %42
  %44 = sub nsw i32 %41, %43
  %45 = load i32, i32* %4, align 4
  %46 = mul nsw i32 1000, %45
  %47 = sub nsw i32 %44, %46
  %48 = sdiv i32 %47, 10000
  store i32 %48, i32* %3, align 4
  %49 = load i32, i32* %3, align 4
  %50 = icmp eq i32 %49, 0
  br i1 %50, label %51, label %70

51:                                               ; preds = %0
  %52 = load i32, i32* %4, align 4
  %53 = icmp eq i32 %52, 0
  br i1 %53, label %54, label %70

54:                                               ; preds = %51
  %55 = load i32, i32* %5, align 4
  %56 = icmp eq i32 %55, 0
  br i1 %56, label %57, label %70

57:                                               ; preds = %54
  %58 = load i32, i32* %6, align 4
  %59 = icmp ne i32 %58, 0
  br i1 %59, label %60, label %70

60:                                               ; preds = %57
  %61 = load i32, i32* %7, align 4
  %62 = icmp ne i32 %61, 0
  br i1 %62, label %63, label %70

63:                                               ; preds = %60
  %64 = load i32, i32* %7, align 4
  %65 = mul nsw i32 10, %64
  %66 = load i32, i32* %6, align 4
  %67 = add nsw i32 %65, %66
  store i32 %67, i32* %8, align 4
  %68 = load i32, i32* %8, align 4
  %69 = call i32 (i8*, ...) @printf(i8* getelementptr inbounds ([3 x i8], [3 x i8]* @.str, i64 0, i64 0), i32 %68)
  br label %70

70:                                               ; preds = %63, %60, %57, %54, %51, %0
  %71 = load i32, i32* %3, align 4
  %72 = icmp eq i32 %71, 0
  br i1 %72, label %73, label %95

73:                                               ; preds = %70
  %74 = load i32, i32* %4, align 4
  %75 = icmp eq i32 %74, 0
  br i1 %75, label %76, label %95

76:                                               ; preds = %73
  %77 = load i32, i32* %5, align 4
  %78 = icmp ne i32 %77, 0
  br i1 %78, label %79, label %95

79:                                               ; preds = %76
  %80 = load i32, i32* %6, align 4
  %81 = icmp ne i32 %80, 0
  br i1 %81, label %82, label %95

82:                                               ; preds = %79
  %83 = load i32, i32* %7, align 4
  %84 = icmp ne i32 %83, 0
  br i1 %84, label %85, label %95

85:                                               ; preds = %82
  %86 = load i32, i32* %7, align 4
  %87 = mul nsw i32 100, %86
  %88 = load i32, i32* %6, align 4
  %89 = mul nsw i32 10, %88
  %90 = add nsw i32 %87, %89
  %91 = load i32, i32* %5, align 4
  %92 = add nsw i32 %90, %91
  store i32 %92, i32* %8, align 4
  %93 = load i32, i32* %8, align 4
  %94 = call i32 (i8*, ...) @printf(i8* getelementptr inbounds ([3 x i8], [3 x i8]* @.str, i64 0, i64 0), i32 %93)
  br label %95

95:                                               ; preds = %85, %82, %79, %76, %73, %70
  %96 = load i32, i32* %3, align 4
  %97 = icmp eq i32 %96, 0
  br i1 %97, label %98, label %123

98:                                               ; preds = %95
  %99 = load i32, i32* %4, align 4
  %100 = icmp ne i32 %99, 0
  br i1 %100, label %101, label %123

101:                                              ; preds = %98
  %102 = load i32, i32* %5, align 4
  %103 = icmp ne i32 %102, 0
  br i1 %103, label %104, label %123

104:                                              ; preds = %101
  %105 = load i32, i32* %6, align 4
  %106 = icmp ne i32 %105, 0
  br i1 %106, label %107, label %123

107:                                              ; preds = %104
  %108 = load i32, i32* %7, align 4
  %109 = icmp ne i32 %108, 0
  br i1 %109, label %110, label %123

110:                                              ; preds = %107
  %111 = load i32, i32* %7, align 4
  %112 = mul nsw i32 1000, %111
  %113 = load i32, i32* %6, align 4
  %114 = mul nsw i32 100, %113
  %115 = add nsw i32 %112, %114
  %116 = load i32, i32* %5, align 4
  %117 = mul nsw i32 10, %116
  %118 = add nsw i32 %115, %117
  %119 = load i32, i32* %4, align 4
  %120 = add nsw i32 %118, %119
  store i32 %120, i32* %8, align 4
  %121 = load i32, i32* %8, align 4
  %122 = call i32 (i8*, ...) @printf(i8* getelementptr inbounds ([3 x i8], [3 x i8]* @.str, i64 0, i64 0), i32 %121)
  br label %123

123:                                              ; preds = %110, %107, %104, %101, %98, %95
  %124 = load i32, i32* %3, align 4
  %125 = icmp ne i32 %124, 0
  br i1 %125, label %126, label %154

126:                                              ; preds = %123
  %127 = load i32, i32* %4, align 4
  %128 = icmp ne i32 %127, 0
  br i1 %128, label %129, label %154

129:                                              ; preds = %126
  %130 = load i32, i32* %5, align 4
  %131 = icmp ne i32 %130, 0
  br i1 %131, label %132, label %154

132:                                              ; preds = %129
  %133 = load i32, i32* %6, align 4
  %134 = icmp ne i32 %133, 0
  br i1 %134, label %135, label %154

135:                                              ; preds = %132
  %136 = load i32, i32* %7, align 4
  %137 = icmp ne i32 %136, 0
  br i1 %137, label %138, label %154

138:                                              ; preds = %135
  %139 = load i32, i32* %7, align 4
  %140 = mul nsw i32 10000, %139
  %141 = load i32, i32* %6, align 4
  %142 = mul nsw i32 1000, %141
  %143 = add nsw i32 %140, %142
  %144 = load i32, i32* %5, align 4
  %145 = mul nsw i32 100, %144
  %146 = add nsw i32 %143, %145
  %147 = load i32, i32* %4, align 4
  %148 = mul nsw i32 10, %147
  %149 = add nsw i32 %146, %148
  %150 = load i32, i32* %3, align 4
  %151 = add nsw i32 %149, %150
  store i32 %151, i32* %8, align 4
  %152 = load i32, i32* %8, align 4
  %153 = call i32 (i8*, ...) @printf(i8* getelementptr inbounds ([3 x i8], [3 x i8]* @.str, i64 0, i64 0), i32 %152)
  br label %154

154:                                              ; preds = %138, %135, %132, %129, %126, %123
  ret i32 0
}

declare dso_local i32 @__isoc99_scanf(i8*, ...) #1

declare dso_local i32 @printf(i8*, ...) #1


!llvm.module.flags = !{!0}
!llvm.ident = !{!1}

!0 = !{i32 1, !"wchar_size", i32 4}
!1 = !{!"clang version 10.0.0-4ubuntu1 "}
